target datalayout = "e-m:e-p270:32:32-p271:32:32-p272:64:64-i64:64-i128:128-f80:128-n8:16:32:64-S128"
target triple = "x86_64-pc-linux-gnu"

%struct.Sbd_Str_t_ = type { i32, i32, [10 x i32], i64 }
%struct.Vec_Int_t_ = type { i32, i32, ptr }

@.str = private unnamed_addr constant [17 x i8] c"Solution found:\0A\00", align 1
@.str.1 = private unnamed_addr constant [8 x i8] c"%s%d : \00", align 1
@.str.2 = private unnamed_addr constant [4 x i8] c"LUT\00", align 1
@.str.3 = private unnamed_addr constant [4 x i8] c"SEL\00", align 1
@.str.4 = private unnamed_addr constant [3 x i8] c"%d\00", align 1
@.str.5 = private unnamed_addr constant [6 x i8] c"    {\00", align 1
@.str.6 = private unnamed_addr constant [4 x i8] c" %d\00", align 1
@.str.7 = private unnamed_addr constant [4 x i8] c" }\0A\00", align 1

; Function Attrs: nounwind uwtable
define internal i32 @Abc_LitIsCompl(i32 noundef %0) #0 {
  %2 = alloca i32, align 4
  store i32 %0, ptr %2, align 4
  %3 = load i32, ptr %2, align 4
  %4 = and i32 %3, 1
  ret i32 %4
}

; Function Attrs: nounwind uwtable
define internal i32 @Vec_IntEntry(ptr noundef %0, i32 noundef %1) #0 {
  %3 = alloca ptr, align 8
  %4 = alloca i32, align 4
  store ptr %0, ptr %3, align 8
  store i32 %1, ptr %4, align 4
  %5 = load ptr, ptr %3, align 8
  %6 = getelementptr inbounds %struct.Vec_Int_t_, ptr %5, i32 0, i32 2
  %7 = load ptr, ptr %6, align 8
  %8 = load i32, ptr %4, align 4
  %9 = sext i32 %8 to i64
  %10 = getelementptr inbounds i32, ptr %7, i64 %9
  %11 = load i32, ptr %10, align 4
  ret i32 %11
}

; Function Attrs: nounwind uwtable
define void @Sbd_ProblemPrintSolution(i32 noundef %0, ptr noundef %1, ptr noundef %2) #0 {
  %4 = alloca i32, align 4
  %5 = alloca ptr, align 8
  %6 = alloca ptr, align 8
  %7 = alloca ptr, align 8
  %8 = alloca i32, align 4
  %9 = alloca i32, align 4
  %10 = alloca i32, align 4
  store i32 %0, ptr %4, align 4
  store ptr %1, ptr %5, align 8
  store ptr %2, ptr %6, align 8
  store i32 0, ptr %10, align 4
  %11 = call i32 (ptr, ...) @printf(ptr noundef @.str)
  %12 = load ptr, ptr %5, align 8
  store ptr %12, ptr %7, align 8
  br label %13

13:                                               ; preds = %88, %3
  %14 = load ptr, ptr %7, align 8
  %15 = load ptr, ptr %5, align 8
  %16 = load i32, ptr %4, align 4
  %17 = sext i32 %16 to i64
  %18 = getelementptr inbounds %struct.Sbd_Str_t_, ptr %15, i64 %17
  %19 = icmp ult ptr %14, %18
  br i1 %19, label %20, label %91

20:                                               ; preds = %13
  %21 = load ptr, ptr %7, align 8
  %22 = getelementptr inbounds %struct.Sbd_Str_t_, ptr %21, i32 0, i32 0
  %23 = load i32, ptr %22, align 8
  %24 = icmp ne i32 %23, 0
  br i1 %24, label %25, label %30

25:                                               ; preds = %20
  %26 = load ptr, ptr %7, align 8
  %27 = getelementptr inbounds %struct.Sbd_Str_t_, ptr %26, i32 0, i32 1
  %28 = load i32, ptr %27, align 4
  %29 = shl i32 1, %28
  br label %34

30:                                               ; preds = %20
  %31 = load ptr, ptr %7, align 8
  %32 = getelementptr inbounds %struct.Sbd_Str_t_, ptr %31, i32 0, i32 1
  %33 = load i32, ptr %32, align 4
  br label %34

34:                                               ; preds = %30, %25
  %35 = phi i32 [ %29, %25 ], [ %33, %30 ]
  store i32 %35, ptr %9, align 4
  %36 = load ptr, ptr %7, align 8
  %37 = getelementptr inbounds %struct.Sbd_Str_t_, ptr %36, i32 0, i32 0
  %38 = load i32, ptr %37, align 8
  %39 = icmp ne i32 %38, 0
  %40 = select i1 %39, ptr @.str.2, ptr @.str.3
  %41 = load ptr, ptr %7, align 8
  %42 = load ptr, ptr %5, align 8
  %43 = ptrtoint ptr %41 to i64
  %44 = ptrtoint ptr %42 to i64
  %45 = sub i64 %43, %44
  %46 = sdiv exact i64 %45, 56
  %47 = trunc i64 %46 to i32
  %48 = call i32 (ptr, ...) @printf(ptr noundef @.str.1, ptr noundef %40, i32 noundef %47)
  store i32 0, ptr %8, align 4
  br label %49

49:                                               ; preds = %62, %34
  %50 = load i32, ptr %8, align 4
  %51 = load i32, ptr %9, align 4
  %52 = icmp slt i32 %50, %51
  br i1 %52, label %53, label %67

53:                                               ; preds = %49
  %54 = load ptr, ptr %6, align 8
  %55 = load i32, ptr %10, align 4
  %56 = call i32 @Vec_IntEntry(ptr noundef %54, i32 noundef %55)
  %57 = call i32 @Abc_LitIsCompl(i32 noundef %56)
  %58 = icmp ne i32 %57, 0
  %59 = xor i1 %58, true
  %60 = zext i1 %59 to i32
  %61 = call i32 (ptr, ...) @printf(ptr noundef @.str.4, i32 noundef %60)
  br label %62

62:                                               ; preds = %53
  %63 = load i32, ptr %8, align 4
  %64 = add nsw i32 %63, 1
  store i32 %64, ptr %8, align 4
  %65 = load i32, ptr %10, align 4
  %66 = add nsw i32 %65, 1
  store i32 %66, ptr %10, align 4
  br label %49, !llvm.loop !16

67:                                               ; preds = %49
  %68 = call i32 (ptr, ...) @printf(ptr noundef @.str.5)
  store i32 0, ptr %8, align 4
  br label %69

69:                                               ; preds = %83, %67
  %70 = load i32, ptr %8, align 4
  %71 = load ptr, ptr %7, align 8
  %72 = getelementptr inbounds %struct.Sbd_Str_t_, ptr %71, i32 0, i32 1
  %73 = load i32, ptr %72, align 4
  %74 = icmp slt i32 %70, %73
  br i1 %74, label %75, label %86

75:                                               ; preds = %69
  %76 = load ptr, ptr %7, align 8
  %77 = getelementptr inbounds %struct.Sbd_Str_t_, ptr %76, i32 0, i32 2
  %78 = load i32, ptr %8, align 4
  %79 = sext i32 %78 to i64
  %80 = getelementptr inbounds [10 x i32], ptr %77, i64 0, i64 %79
  %81 = load i32, ptr %80, align 4
  %82 = call i32 (ptr, ...) @printf(ptr noundef @.str.6, i32 noundef %81)
  br label %83

83:                                               ; preds = %75
  %84 = load i32, ptr %8, align 4
  %85 = add nsw i32 %84, 1
  store i32 %85, ptr %8, align 4
  br label %69, !llvm.loop !17

86:                                               ; preds = %69
  %87 = call i32 (ptr, ...) @printf(ptr noundef @.str.7)
  br label %88

88:                                               ; preds = %86
  %89 = load ptr, ptr %7, align 8
  %90 = getelementptr inbounds %struct.Sbd_Str_t_, ptr %89, i32 1
  store ptr %90, ptr %7, align 8
  br label %13, !llvm.loop !18

91:                                               ; preds = %13
  ret void
}