; Function Attrs: nofree nounwind uwtable
define void @Sbd_ProblemPrintSolution(i32 noundef %0, ptr noundef %1, ptr noundef readonly captures(none) %2) local_unnamed_addr #3 {
  %puts = tail call i32 @puts(ptr nonnull dereferenceable(1) @str)
  %4 = sext i32 %0 to i64
  %5 = getelementptr inbounds %struct.Sbd_Str_t_, ptr %1, i64 %4
  %6 = icmp sgt i32 %0, 0
  br i1 %6, label %.lr.ph36, label %._crit_edge37

.lr.ph36:                                         ; preds = %3
  %7 = ptrtoint ptr %1 to i64
  %8 = getelementptr i8, ptr %2, i64 8
  br label %9

9:                                                ; preds = %.lr.ph36, %._crit_edge32
  %.034 = phi i32 [ 0, %.lr.ph36 ], [ %.1.lcssa, %._crit_edge32 ]
  %.02133 = phi ptr [ %1, %.lr.ph36 ], [ %42, %._crit_edge32 ]
  %10 = load i32, ptr %.02133, align 8
  %.not = icmp eq i32 %10, 0
  %11 = getelementptr inbounds nuw i8, ptr %.02133, i64 4
  %12 = load i32, ptr %11, align 4
  %13 = shl nuw i32 1, %12
  %14 = select i1 %.not, ptr @.str.3, ptr @.str.2
  %15 = select i1 %.not, i32 %12, i32 %13
  %16 = ptrtoint ptr %.02133 to i64
  %17 = sub i64 %16, %7
  %18 = sdiv exact i64 %17, 56
  %19 = trunc i64 %18 to i32
  %20 = tail call i32 (ptr, ...) @printf(ptr noundef nonnull dereferenceable(1) @.str.1, ptr noundef nonnull %14, i32 noundef %19)
  %21 = icmp sgt i32 %15, 0
  br i1 %21, label %.lr.ph.preheader, label %._crit_edge

.lr.ph.preheader:                                 ; preds = %9
  %22 = sext i32 %.034 to i64
  br label %.lr.ph

.lr.ph:                                           ; preds = %.lr.ph.preheader, %.lr.ph
  %indvars.iv = phi i64 [ %22, %.lr.ph.preheader ], [ %indvars.iv.next, %.lr.ph ]
  %.02227 = phi i32 [ 0, %.lr.ph.preheader ], [ %28, %.lr.ph ]
  %.val = load ptr, ptr %8, align 8
  %23 = getelementptr inbounds i32, ptr %.val, i64 %indvars.iv
  %24 = load i32, ptr %23, align 4
  %25 = and i32 %24, 1
  %26 = xor i32 %25, 1
  %27 = tail call i32 (ptr, ...) @printf(ptr noundef nonnull dereferenceable(1) @.str.4, i32 noundef %26)
  %28 = add nuw nsw i32 %.02227, 1
  %indvars.iv.next = add nsw i64 %indvars.iv, 1
  %exitcond.not = icmp eq i32 %28, %15
  br i1 %exitcond.not, label %._crit_edge.loopexit, label %.lr.ph, !llvm.loop !16

._crit_edge.loopexit:                             ; preds = %.lr.ph
  %29 = trunc nsw i64 %indvars.iv.next to i32
  br label %._crit_edge

._crit_edge:                                      ; preds = %._crit_edge.loopexit, %9
  %.1.lcssa = phi i32 [ %.034, %9 ], [ %29, %._crit_edge.loopexit ]
  %30 = tail call i32 (ptr, ...) @printf(ptr noundef nonnull dereferenceable(1) @.str.5)
  %31 = getelementptr inbounds nuw i8, ptr %.02133, i64 4
  %32 = load i32, ptr %31, align 4
  %33 = icmp sgt i32 %32, 0
  br i1 %33, label %.lr.ph31, label %._crit_edge32

.lr.ph31:                                         ; preds = %._crit_edge
  %34 = getelementptr inbounds nuw i8, ptr %.02133, i64 8
  br label %35

35:                                               ; preds = %.lr.ph31, %35
  %indvars.iv39 = phi i64 [ 0, %.lr.ph31 ], [ %indvars.iv.next40, %35 ]
  %36 = getelementptr inbounds nuw [10 x i32], ptr %34, i64 0, i64 %indvars.iv39
  %37 = load i32, ptr %36, align 4
  %38 = tail call i32 (ptr, ...) @printf(ptr noundef nonnull dereferenceable(1) @.str.6, i32 noundef %37)
  %indvars.iv.next40 = add nuw nsw i64 %indvars.iv39, 1
  %39 = load i32, ptr %31, align 4
  %40 = sext i32 %39 to i64
  %41 = icmp slt i64 %indvars.iv.next40, %40
  br i1 %41, label %35, label %._crit_edge32, !llvm.loop !17

._crit_edge32:                                    ; preds = %35, %._crit_edge
  %puts25 = tail call i32 @puts(ptr nonnull dereferenceable(1) @str.1)
  %42 = getelementptr inbounds nuw i8, ptr %.02133, i64 56
  %43 = icmp ult ptr %42, %5
  br i1 %43, label %9, label %._crit_edge37, !llvm.loop !18

._crit_edge37:                                    ; preds = %._crit_edge32, %3
  ret void
}